target datalayout = "e-m:e-p270:32:32-p271:32:32-p272:64:64-i64:64-i128:128-f80:128-n8:16:32:64-S128"
target triple = "x86_64-pc-linux-gnu"

%struct.ReplicationSlot = type { i8, i8, i32, i8, i8, i32, i32, %struct.ReplicationSlotPersistentData, %struct.LWLock, %struct.ConditionVariable, i32, i64, i64, i64, i64, i64 }
%struct.ReplicationSlotPersistentData = type { %struct.nameData, i32, i32, i32, i32, i64, i32, i64, i64, i8, %struct.nameData, i8, i8 }
%struct.nameData = type { [64 x i8] }
%struct.LWLock = type { i16, %struct.pg_atomic_uint32, %struct.proclist_head }
%struct.pg_atomic_uint32 = type { i32 }
%struct.proclist_head = type { i32, i32 }
%struct.ConditionVariable = type { i8, %struct.proclist_head }
%struct.dlist_head = type { %struct.dlist_node }
%struct.dlist_node = type { ptr, ptr }
%struct.WalSndCtlData = type { [3 x %struct.dlist_head], [3 x i64], i8, %struct.ConditionVariable, %struct.ConditionVariable, %struct.ConditionVariable, [0 x %struct.WalSnd] }
%struct.WalSnd = type { i32, i32, i64, i8, i64, i64, i64, i64, i64, i64, i32, i8, i64, i32 }

@MyReplicationSlot = dso_local global ptr null, align 8
@synchronized_standby_slots_config = internal global ptr null, align 8
@WalSndCtl = external global ptr, align 8
@InterruptPending = external global i32, align 4
@ConfigReloadPending = external global i32, align 4

; Function Attrs: nounwind uwtable
define dso_local void @WaitForStandbyConfirmation(i64 noundef %0) #0 {
  %2 = alloca i64, align 8
  store i64 %0, ptr %2, align 8
  %3 = load ptr, ptr @MyReplicationSlot, align 8
  %4 = getelementptr inbounds nuw %struct.ReplicationSlot, ptr %3, i32 0, i32 7
  %5 = getelementptr inbounds nuw %struct.ReplicationSlotPersistentData, ptr %4, i32 0, i32 12
  %6 = load i8, ptr %5, align 2, !range !4, !noundef !5
  %7 = trunc i8 %6 to i1
  br i1 %7, label %8, label %11

8:                                                ; preds = %1
  %9 = load ptr, ptr @synchronized_standby_slots_config, align 8
  %10 = icmp ne ptr %9, null
  br i1 %10, label %12, label %11

11:                                               ; preds = %8, %1
  br label %39

12:                                               ; preds = %8
  %13 = load ptr, ptr @WalSndCtl, align 8
  %14 = getelementptr inbounds nuw %struct.WalSndCtlData, ptr %13, i32 0, i32 5
  call void @ConditionVariablePrepareToSleep(ptr noundef %14)
  br label %15

15:                                               ; preds = %33, %12
  br label %16

16:                                               ; preds = %15
  %17 = load volatile i32, ptr @InterruptPending, align 4
  %18 = icmp ne i32 %17, 0
  %19 = zext i1 %18 to i32
  %20 = sext i32 %19 to i64
  %21 = call i64 @llvm.expect.i64(i64 %20, i64 0)
  %22 = icmp ne i64 %21, 0
  br i1 %22, label %23, label %24

23:                                               ; preds = %16
  call void @ProcessInterrupts()
  br label %24

24:                                               ; preds = %23, %16
  br label %25

25:                                               ; preds = %24
  %26 = load volatile i32, ptr @ConfigReloadPending, align 4
  %27 = icmp ne i32 %26, 0
  br i1 %27, label %28, label %29

28:                                               ; preds = %25
  store volatile i32 0, ptr @ConfigReloadPending, align 4
  call void @ProcessConfigFile(i32 noundef 2)
  br label %29

29:                                               ; preds = %28, %25
  %30 = load i64, ptr %2, align 8
  %31 = call zeroext i1 @StandbySlotsHaveCaughtup(i64 noundef %30, i32 noundef 19)
  br i1 %31, label %32, label %33

32:                                               ; preds = %29
  br label %37

33:                                               ; preds = %29
  %34 = load ptr, ptr @WalSndCtl, align 8
  %35 = getelementptr inbounds nuw %struct.WalSndCtlData, ptr %34, i32 0, i32 5
  %36 = call zeroext i1 @ConditionVariableTimedSleep(ptr noundef %35, i64 noundef 1000, i32 noundef 100663302)
  br label %15

37:                                               ; preds = %32
  %38 = call zeroext i1 @ConditionVariableCancelSleep()
  br label %39

39:                                               ; preds = %37, %11
  ret void
}