; Function Attrs: nounwind uwtable
define dso_local void @WaitForStandbyConfirmation(i64 noundef %0) local_unnamed_addr #0 {
  %2 = load ptr, ptr @MyReplicationSlot, align 8
  %3 = getelementptr inbounds nuw i8, ptr %2, i64 202
  %4 = load i8, ptr %3, align 2, !range !4, !noundef !5
  %5 = trunc nuw i8 %4 to i1
  %6 = load ptr, ptr @synchronized_standby_slots_config, align 8
  %7 = icmp ne ptr %6, null
  %or.cond = select i1 %5, i1 %7, i1 false
  br i1 %or.cond, label %8, label %25

8:                                                ; preds = %1
  %9 = load ptr, ptr @WalSndCtl, align 8
  %10 = getelementptr inbounds nuw i8, ptr %9, i64 100
  tail call void @ConditionVariablePrepareToSleep(ptr noundef nonnull %10) #17
  br label %11

11:                                               ; preds = %19, %8
  %12 = load volatile i32, ptr @InterruptPending, align 4
  %.not = icmp eq i32 %12, 0
  br i1 %.not, label %14, label %13, !prof !52

13:                                               ; preds = %11
  tail call void @ProcessInterrupts() #17
  br label %14

14:                                               ; preds = %11, %13
  %15 = load volatile i32, ptr @ConfigReloadPending, align 4
  %.not2 = icmp eq i32 %15, 0
  br i1 %.not2, label %17, label %16

16:                                               ; preds = %14
  store volatile i32 0, ptr @ConfigReloadPending, align 4
  tail call void @ProcessConfigFile(i32 noundef 2) #17
  br label %17

17:                                               ; preds = %16, %14
  %18 = tail call zeroext i1 @StandbySlotsHaveCaughtup(i64 noundef %0, i32 noundef 19)
  br i1 %18, label %23, label %19

19:                                               ; preds = %17
  %20 = load ptr, ptr @WalSndCtl, align 8
  %21 = getelementptr inbounds nuw i8, ptr %20, i64 100
  %22 = tail call zeroext i1 @ConditionVariableTimedSleep(ptr noundef nonnull %21, i64 noundef 1000, i32 noundef 100663302) #17
  br label %11

23:                                               ; preds = %17
  %24 = tail call zeroext i1 @ConditionVariableCancelSleep() #17
  br label %25

25:                                               ; preds = %1, %23
  ret void
}